; Function Attrs: mustprogress uwtable
define noundef i32 @zmq_timers_add(ptr noundef %0, i64 noundef %1, ptr noundef %2, ptr noundef %3) local_unnamed_addr #1 {
  %.not = icmp eq ptr %0, null
  br i1 %.not, label %7, label %5

5:                                                ; preds = %4
  %6 = tail call noundef zeroext i1 @_ZNK3zmq8timers_t9check_tagEv(ptr noundef nonnull align 8 dereferenceable(120) %0)
  br i1 %6, label %9, label %7

7:                                                ; preds = %5, %4
  %8 = tail call ptr @__errno_location() #20
  store i32 14, ptr %8, align 4, !tbaa !3
  br label %11

9:                                                ; preds = %5
  %10 = tail call noundef i32 @_ZN3zmq8timers_t3addEmPFviPvES1_(ptr noundef nonnull align 8 dereferenceable(120) %0, i64 noundef %1, ptr noundef %2, ptr noundef %3)
  br label %11

11:                                               ; preds = %9, %7
  %.0 = phi i32 [ %10, %9 ], [ -1, %7 ]
  ret i32 %.0
}